target datalayout = "e-m:e-p270:32:32-p271:32:32-p272:64:64-i64:64-i128:128-f80:128-n8:16:32:64-S128"
target triple = "x86_64-pc-linux-gnu"

%struct.stat_data = type { %struct.cache_time, %struct.cache_time, i32, i32, i32, i32, i32 }
%struct.cache_time = type { i32, i32 }
%struct.object_id = type { [32 x i8], i32 }
%struct.index_state = type { ptr, i32, i32, i32, i32, ptr, ptr, ptr, %struct.cache_time, i8, i32, %struct.hashmap, %struct.hashmap, %struct.object_id, ptr, ptr, ptr, ptr, ptr, ptr, ptr }
%struct.hashmap = type { ptr, ptr, ptr, i32, i32, i32, i32, i8 }
%struct.hashmap_entry = type { ptr, i32 }
%struct.cache_entry = type { %struct.hashmap_entry, %struct.stat_data, i32, i32, i32, i32, i32, %struct.object_id, [0 x i8] }

@ignore_case = external global i32, align 4

; Function Attrs: nounwind uwtable
define internal i32 @directory_exists_in_index_icase(ptr noundef %0, ptr noundef %1, i32 noundef %2) #0 {
  %4 = alloca i32, align 4
  %5 = alloca ptr, align 8
  %6 = alloca ptr, align 8
  %7 = alloca i32, align 4
  %8 = alloca ptr, align 8
  %9 = alloca i32, align 4
  store ptr %0, ptr %5, align 8, !tbaa !41
  store ptr %1, ptr %6, align 8, !tbaa !13
  store i32 %2, ptr %7, align 4, !tbaa !16
  call void @llvm.lifetime.start.p0(i64 8, ptr %8) #12
  %10 = load ptr, ptr %5, align 8, !tbaa !41
  %11 = load ptr, ptr %6, align 8, !tbaa !13
  %12 = load i32, ptr %7, align 4, !tbaa !16
  %13 = call i32 @index_dir_find(ptr noundef %10, ptr noundef %11, i32 noundef %12, ptr noundef null)
  %14 = icmp ne i32 %13, 0
  br i1 %14, label %15, label %16

15:                                               ; preds = %3
  store i32 1, ptr %4, align 4
  store i32 1, ptr %9, align 4
  br label %32

16:                                               ; preds = %3
  %17 = load ptr, ptr %5, align 8, !tbaa !41
  %18 = load ptr, ptr %6, align 8, !tbaa !13
  %19 = load i32, ptr %7, align 4, !tbaa !16
  %20 = load i32, ptr @ignore_case, align 4, !tbaa !16
  %21 = call ptr @index_file_exists(ptr noundef %17, ptr noundef %18, i32 noundef %19, i32 noundef %20)
  store ptr %21, ptr %8, align 8, !tbaa !147
  %22 = load ptr, ptr %8, align 8, !tbaa !147
  %23 = icmp ne ptr %22, null
  br i1 %23, label %24, label %31

24:                                               ; preds = %16
  %25 = load ptr, ptr %8, align 8, !tbaa !147
  %26 = getelementptr inbounds nuw %struct.cache_entry, ptr %25, i32 0, i32 2
  %27 = load i32, ptr %26, align 4, !tbaa !16
  %28 = and i32 %27, 61440
  %29 = icmp eq i32 %28, 57344
  br i1 %29, label %30, label %31

30:                                               ; preds = %24
  store i32 2, ptr %4, align 4
  store i32 1, ptr %9, align 4
  br label %32

31:                                               ; preds = %24, %16
  store i32 0, ptr %4, align 4
  store i32 1, ptr %9, align 4
  br label %32

32:                                               ; preds = %31, %30, %15
  call void @llvm.lifetime.end.p0(i64 8, ptr %8) #12
  %33 = load i32, ptr %4, align 4
  ret i32 %33
}

; Function Attrs: nounwind uwtable
define internal i32 @directory_exists_in_index(ptr noundef %0, ptr noundef %1, i32 noundef %2) #0 {
  %4 = alloca i32, align 4
  %5 = alloca ptr, align 8
  %6 = alloca ptr, align 8
  %7 = alloca i32, align 4
  %8 = alloca i32, align 4
  %9 = alloca i32, align 4
  %10 = alloca ptr, align 8
  %11 = alloca i8, align 1
  store ptr %0, ptr %5, align 8, !tbaa !41
  store ptr %1, ptr %6, align 8, !tbaa !13
  store i32 %2, ptr %7, align 4, !tbaa !16
  call void @llvm.lifetime.start.p0(i64 4, ptr %8) #12
  %12 = load i32, ptr @ignore_case, align 4, !tbaa !16
  %13 = icmp ne i32 %12, 0
  br i1 %13, label %14, label %19

14:                                               ; preds = %3
  %15 = load ptr, ptr %5, align 8, !tbaa !41
  %16 = load ptr, ptr %6, align 8, !tbaa !13
  %17 = load i32, ptr %7, align 4, !tbaa !16
  %18 = call i32 @directory_exists_in_index_icase(ptr noundef %15, ptr noundef %16, i32 noundef %17)
  store i32 %18, ptr %4, align 4
  store i32 1, ptr %9, align 4
  br label %86

19:                                               ; preds = %3
  %20 = load ptr, ptr %5, align 8, !tbaa !41
  %21 = load ptr, ptr %6, align 8, !tbaa !13
  %22 = load i32, ptr %7, align 4, !tbaa !16
  %23 = call i32 @index_name_pos(ptr noundef %20, ptr noundef %21, i32 noundef %22)
  store i32 %23, ptr %8, align 4, !tbaa !16
  %24 = load i32, ptr %8, align 4, !tbaa !16
  %25 = icmp slt i32 %24, 0
  br i1 %25, label %26, label %30

26:                                               ; preds = %19
  %27 = load i32, ptr %8, align 4, !tbaa !16
  %28 = sub nsw i32 0, %27
  %29 = sub nsw i32 %28, 1
  store i32 %29, ptr %8, align 4, !tbaa !16
  br label %30

30:                                               ; preds = %26, %19
  br label %31

31:                                               ; preds = %84, %30
  %32 = load i32, ptr %8, align 4, !tbaa !16
  %33 = load ptr, ptr %5, align 8, !tbaa !41
  %34 = getelementptr inbounds nuw %struct.index_state, ptr %33, i32 0, i32 2
  %35 = load i32, ptr %34, align 4, !tbaa !267
  %36 = icmp ult i32 %32, %35
  br i1 %36, label %37, label %85

37:                                               ; preds = %31
  call void @llvm.lifetime.start.p0(i64 8, ptr %10) #12
  %38 = load ptr, ptr %5, align 8, !tbaa !41
  %39 = getelementptr inbounds nuw %struct.index_state, ptr %38, i32 0, i32 0
  %40 = load ptr, ptr %39, align 8, !tbaa !146
  %41 = load i32, ptr %8, align 4, !tbaa !16
  %42 = add nsw i32 %41, 1
  store i32 %42, ptr %8, align 4, !tbaa !16
  %43 = sext i32 %41 to i64
  %44 = getelementptr inbounds ptr, ptr %40, i64 %43
  %45 = load ptr, ptr %44, align 8, !tbaa !147
  store ptr %45, ptr %10, align 8, !tbaa !147
  call void @llvm.lifetime.start.p0(i64 1, ptr %11) #12
  %46 = load ptr, ptr %10, align 8, !tbaa !147
  %47 = getelementptr inbounds nuw %struct.cache_entry, ptr %46, i32 0, i32 8
  %48 = getelementptr inbounds [0 x i8], ptr %47, i64 0, i64 0
  %49 = load ptr, ptr %6, align 8, !tbaa !13
  %50 = load i32, ptr %7, align 4, !tbaa !16
  %51 = sext i32 %50 to i64
  %52 = call i32 @strncmp(ptr noundef %48, ptr noundef %49, i64 noundef %51) #13
  %53 = icmp ne i32 %52, 0
  br i1 %53, label %54, label %55

54:                                               ; preds = %37
  store i32 3, ptr %9, align 4
  br label %82

55:                                               ; preds = %37
  %56 = load ptr, ptr %10, align 8, !tbaa !147
  %57 = getelementptr inbounds nuw %struct.cache_entry, ptr %56, i32 0, i32 8
  %58 = load i32, ptr %7, align 4, !tbaa !16
  %59 = sext i32 %58 to i64
  %60 = getelementptr inbounds [0 x i8], ptr %57, i64 0, i64 %59
  %61 = load i8, ptr %60, align 1, !tbaa !15
  store i8 %61, ptr %11, align 1, !tbaa !15
  %62 = load i8, ptr %11, align 1, !tbaa !15
  %63 = zext i8 %62 to i32
  %64 = icmp sgt i32 %63, 47
  br i1 %64, label %65, label %66

65:                                               ; preds = %55
  store i32 3, ptr %9, align 4
  br label %82

66:                                               ; preds = %55
  %67 = load i8, ptr %11, align 1, !tbaa !15
  %68 = zext i8 %67 to i32
  %69 = icmp eq i32 %68, 47
  br i1 %69, label %70, label %71

70:                                               ; preds = %66
  store i32 1, ptr %4, align 4
  store i32 1, ptr %9, align 4
  br label %82

71:                                               ; preds = %66
  %72 = load i8, ptr %11, align 1, !tbaa !15
  %73 = icmp ne i8 %72, 0
  br i1 %73, label %81, label %74

74:                                               ; preds = %71
  %75 = load ptr, ptr %10, align 8, !tbaa !147
  %76 = getelementptr inbounds nuw %struct.cache_entry, ptr %75, i32 0, i32 2
  %77 = load i32, ptr %76, align 4, !tbaa !16
  %78 = and i32 %77, 61440
  %79 = icmp eq i32 %78, 57344
  br i1 %79, label %80, label %81

80:                                               ; preds = %74
  store i32 2, ptr %4, align 4
  store i32 1, ptr %9, align 4
  br label %82

81:                                               ; preds = %74, %71
  store i32 0, ptr %9, align 4
  br label %82

82:                                               ; preds = %81, %80, %70, %65, %54
  call void @llvm.lifetime.end.p0(i64 1, ptr %11) #12
  call void @llvm.lifetime.end.p0(i64 8, ptr %10) #12
  %83 = load i32, ptr %9, align 4
  switch i32 %83, label %86 [
    i32 0, label %84
    i32 3, label %85
  ]

84:                                               ; preds = %82
  br label %31, !llvm.loop !298

85:                                               ; preds = %82, %31
  store i32 0, ptr %4, align 4
  store i32 1, ptr %9, align 4
  br label %86

86:                                               ; preds = %85, %82, %14
  call void @llvm.lifetime.end.p0(i64 4, ptr %8) #12
  %87 = load i32, ptr %4, align 4
  ret i32 %87
}