; Function Attrs: nounwind uwtable
define internal fastcc range(i32 0, 3) i32 @directory_exists_in_index(ptr noundef %0, ptr noundef %1, i32 noundef %2) unnamed_addr #0 {
  %4 = load i32, ptr @ignore_case, align 4, !tbaa !10
  %.not = icmp eq i32 %4, 0
  br i1 %.not, label %16, label %5

5:                                                ; preds = %3
  %6 = tail call i32 @index_dir_find(ptr noundef %0, ptr noundef %1, i32 noundef %2, ptr noundef null) #27
  %.not.i = icmp eq i32 %6, 0
  br i1 %.not.i, label %7, label %directory_exists_in_index_icase.exit

7:                                                ; preds = %5
  %8 = load i32, ptr @ignore_case, align 4, !tbaa !10
  %9 = tail call ptr @index_file_exists(ptr noundef %0, ptr noundef %1, i32 noundef %2, i32 noundef %8) #27
  %.not9.i = icmp eq ptr %9, null
  br i1 %.not9.i, label %15, label %10

10:                                               ; preds = %7
  %11 = getelementptr inbounds nuw i8, ptr %9, i64 52
  %12 = load i32, ptr %11, align 4, !tbaa !10
  %13 = and i32 %12, 61440
  %14 = icmp eq i32 %13, 57344
  br i1 %14, label %directory_exists_in_index_icase.exit, label %15

15:                                               ; preds = %10, %7
  br label %directory_exists_in_index_icase.exit

16:                                               ; preds = %3
  %17 = tail call i32 @index_name_pos(ptr noundef %0, ptr noundef %1, i32 noundef %2) #27
  %.lobit = ashr i32 %17, 31
  %spec.select = xor i32 %.lobit, %17
  %18 = getelementptr inbounds nuw i8, ptr %0, i64 12
  %19 = load i32, ptr %18, align 4, !tbaa !241
  %20 = icmp ult i32 %spec.select, %19
  br i1 %20, label %.lr.ph, label %directory_exists_in_index_icase.exit

.lr.ph:                                           ; preds = %16
  %21 = load ptr, ptr %0, align 8, !tbaa !125
  %22 = sext i32 %2 to i64
  %23 = zext i32 %spec.select to i64
  br label %24

24:                                               ; preds = %.lr.ph, %39
  %indvars.iv = phi i64 [ %23, %.lr.ph ], [ %indvars.iv.next, %39 ]
  %indvars.iv.next = add nuw nsw i64 %indvars.iv, 1
  %25 = getelementptr inbounds nuw ptr, ptr %21, i64 %indvars.iv
  %26 = load ptr, ptr %25, align 8, !tbaa !126
  %27 = getelementptr inbounds nuw i8, ptr %26, i64 108
  %28 = tail call i32 @strncmp(ptr noundef nonnull %27, ptr noundef %1, i64 noundef %22) #28
  %.not28 = icmp eq i32 %28, 0
  br i1 %.not28, label %29, label %directory_exists_in_index_icase.exit

29:                                               ; preds = %24
  %30 = getelementptr inbounds [0 x i8], ptr %27, i64 0, i64 %22
  %31 = load i8, ptr %30, align 1, !tbaa !4
  %32 = icmp ugt i8 %31, 47
  br i1 %32, label %directory_exists_in_index_icase.exit, label %33

33:                                               ; preds = %29
  switch i8 %31, label %39 [
    i8 47, label %directory_exists_in_index_icase.exit
    i8 0, label %34
  ]

34:                                               ; preds = %33
  %35 = getelementptr inbounds nuw i8, ptr %26, i64 52
  %36 = load i32, ptr %35, align 4, !tbaa !10
  %37 = and i32 %36, 61440
  %38 = icmp eq i32 %37, 57344
  br i1 %38, label %directory_exists_in_index_icase.exit, label %39

39:                                               ; preds = %34, %33
  %lftr.wideiv = trunc i64 %indvars.iv.next to i32
  %exitcond.not = icmp eq i32 %19, %lftr.wideiv
  br i1 %exitcond.not, label %directory_exists_in_index_icase.exit, label %24

directory_exists_in_index_icase.exit:             ; preds = %39, %33, %34, %24, %29, %16, %15, %10, %5
  %.0 = phi i32 [ 0, %15 ], [ 1, %5 ], [ 2, %10 ], [ 0, %16 ], [ 0, %39 ], [ 1, %33 ], [ 2, %34 ], [ 0, %24 ], [ 0, %29 ]
  ret i32 %.0
}